target datalayout = "e-m:e-p270:32:32-p271:32:32-p272:64:64-i64:64-i128:128-f80:128-n8:16:32:64-S128"
target triple = "x86_64-pc-linux-gnu"

%"class.clang::QualType" = type { %"class.llvm::PointerIntPair" }
%"class.llvm::PointerIntPair" = type { %"struct.llvm::detail::PunnedPointer" }
%"struct.llvm::detail::PunnedPointer" = type { [8 x i8] }
%"class.clang::DeclarationName" = type { i64 }
%"class.clang::SourceLocation" = type { i32 }
%"class.clang::Stmt" = type { %union.anon.415 }
%union.anon.415 = type { %"class.clang::Stmt::PseudoObjectExprBitfields" }
%"class.clang::Stmt::PseudoObjectExprBitfields" = type { i64 }
%"class.clang::Selector" = type { %"class.llvm::PointerIntPair.485" }
%"class.llvm::PointerIntPair.485" = type { %"struct.llvm::detail::PunnedPointer.486" }
%"struct.llvm::detail::PunnedPointer.486" = type { [8 x i8] }
%"class.clang::ValueStmt" = type { %"class.clang::Stmt" }
%"class.clang::Expr" = type { %"class.clang::ValueStmt", %"class.clang::QualType" }
%"class.clang::ObjCMessageExpr" = type { %"class.clang::Expr", i64, i32, %"class.clang::SourceLocation", %"class.clang::SourceLocation", %"class.clang::SourceLocation" }

; Function Attrs: mustprogress nounwind uwtable
define linkonce_odr hidden noundef i64 @_ZNK4llvm6detail13PunnedPointerINS_12PointerUnionIJPKN5clang14IdentifierInfoEPNS3_20MultiKeywordSelectorEEEEE5asIntEv(ptr noundef nonnull align 8 dereferenceable(8) %0) #0 comdat align 2 {
  %2 = alloca ptr, align 8
  %3 = alloca i64, align 8
  store ptr %0, ptr %2, align 8
  %4 = load ptr, ptr %2, align 8
  store i64 0, ptr %3, align 8
  %5 = getelementptr inbounds nuw %"struct.llvm::detail::PunnedPointer.486", ptr %4, i32 0, i32 0
  %6 = getelementptr inbounds [8 x i8], ptr %5, i64 0, i64 0
  call void @llvm.memcpy.p0.p0.i64(ptr align 8 %3, ptr align 8 %6, i64 8, i1 false)
  %7 = load i64, ptr %3, align 8
  ret i64 %7
}

; Function Attrs: mustprogress nounwind uwtable
define linkonce_odr hidden noundef ptr @_ZNK4llvm14PointerIntPairINS_12PointerUnionIJPKN5clang14IdentifierInfoEPNS2_20MultiKeywordSelectorEEEELj2EjNS_21PointerLikeTypeTraitsIS8_EENS_18PointerIntPairInfoIS8_Lj2ESA_EEE14getOpaqueValueEv(ptr noundef nonnull align 8 dereferenceable(8) %0) #0 comdat align 2 {
  %2 = alloca ptr, align 8
  store ptr %0, ptr %2, align 8
  %3 = load ptr, ptr %2, align 8
  %4 = getelementptr inbounds nuw %"class.llvm::PointerIntPair.485", ptr %3, i32 0, i32 0
  %5 = call noundef i64 @_ZNK4llvm6detail13PunnedPointerINS_12PointerUnionIJPKN5clang14IdentifierInfoEPNS3_20MultiKeywordSelectorEEEEE5asIntEv(ptr noundef nonnull align 8 dereferenceable(8) %4)
  %6 = inttoptr i64 %5 to ptr
  ret ptr %6
}

; Function Attrs: mustprogress nounwind uwtable
define linkonce_odr hidden noundef ptr @_ZNK5clang15ObjCMessageExpr13getMethodDeclEv(ptr noundef nonnull align 8 dereferenceable(40) %0) #0 comdat align 2 {
  %2 = alloca ptr, align 8
  %3 = alloca ptr, align 8
  store ptr %0, ptr %3, align 8
  %4 = load ptr, ptr %3, align 8
  %5 = getelementptr inbounds nuw %"class.clang::ObjCMessageExpr", ptr %4, i32 0, i32 2
  %6 = load i32, ptr %5, align 8
  %7 = lshr i32 %6, 24
  %8 = and i32 %7, 1
  %9 = icmp ne i32 %8, 0
  br i1 %9, label %10, label %14

10:                                               ; preds = %1
  %11 = getelementptr inbounds nuw %"class.clang::ObjCMessageExpr", ptr %4, i32 0, i32 1
  %12 = load i64, ptr %11, align 8
  %13 = inttoptr i64 %12 to ptr
  store ptr %13, ptr %2, align 8
  br label %15

14:                                               ; preds = %1
  store ptr null, ptr %2, align 8
  br label %15

15:                                               ; preds = %14, %10
  %16 = load ptr, ptr %2, align 8
  ret ptr %16
}

; Function Attrs: mustprogress nounwind uwtable
define linkonce_odr hidden void @_ZN5clang15DeclarationNameC2ENS_8SelectorE(ptr noundef nonnull align 8 dereferenceable(8) %0, i64 %1) unnamed_addr #0 comdat align 2 {
  %3 = alloca %"class.clang::Selector", align 8
  %4 = alloca ptr, align 8
  %5 = getelementptr inbounds nuw %"class.clang::Selector", ptr %3, i32 0, i32 0
  %6 = getelementptr inbounds nuw %"class.llvm::PointerIntPair.485", ptr %5, i32 0, i32 0
  %7 = getelementptr inbounds nuw %"struct.llvm::detail::PunnedPointer.486", ptr %6, i32 0, i32 0
  store i64 %1, ptr %7, align 8
  store ptr %0, ptr %4, align 8
  %8 = load ptr, ptr %4, align 8
  %9 = getelementptr inbounds nuw %"class.clang::DeclarationName", ptr %8, i32 0, i32 0
  %10 = getelementptr inbounds nuw %"class.clang::Selector", ptr %3, i32 0, i32 0
  %11 = call noundef ptr @_ZNK4llvm14PointerIntPairINS_12PointerUnionIJPKN5clang14IdentifierInfoEPNS2_20MultiKeywordSelectorEEEELj2EjNS_21PointerLikeTypeTraitsIS8_EENS_18PointerIntPairInfoIS8_Lj2ESA_EEE14getOpaqueValueEv(ptr noundef nonnull align 8 dereferenceable(8) %10)
  %12 = ptrtoint ptr %11 to i64
  store i64 %12, ptr %9, align 8
  ret void
}

; Function Attrs: mustprogress nounwind uwtable
define internal void @_ZN12_GLOBAL__N_112StmtProfiler9VisitExprEPKN5clang4ExprE(ptr noundef nonnull align 8 dereferenceable(18) %0, ptr noundef %1) #0 align 2 {
  %3 = alloca ptr, align 8
  %4 = alloca ptr, align 8
  store ptr %0, ptr %3, align 8
  store ptr %1, ptr %4, align 8
  %5 = load ptr, ptr %3, align 8
  %6 = load ptr, ptr %4, align 8
  call void @_ZN12_GLOBAL__N_112StmtProfiler9VisitStmtEPKN5clang4StmtE(ptr noundef nonnull align 8 dereferenceable(18) %5, ptr noundef %6)
  ret void
}

; Function Attrs: mustprogress nounwind uwtable
define internal void @_ZN12_GLOBAL__N_112StmtProfiler20VisitObjCMessageExprEPKN5clang15ObjCMessageExprE(ptr noundef nonnull align 8 dereferenceable(18) %0, ptr noundef %1) #0 align 2 {
  %3 = alloca ptr, align 8
  %4 = alloca ptr, align 8
  %5 = alloca %"class.clang::DeclarationName", align 8
  %6 = alloca %"class.clang::Selector", align 8
  store ptr %0, ptr %3, align 8
  store ptr %1, ptr %4, align 8
  %7 = load ptr, ptr %3, align 8
  %8 = load ptr, ptr %4, align 8
  call void @_ZN12_GLOBAL__N_112StmtProfiler9VisitExprEPKN5clang4ExprE(ptr noundef nonnull align 8 dereferenceable(18) %7, ptr noundef %8)
  %9 = load ptr, ptr %4, align 8
  %10 = call i64 @_ZNK5clang15ObjCMessageExpr11getSelectorEv(ptr noundef nonnull align 8 dereferenceable(40) %9)
  %11 = getelementptr inbounds nuw %"class.clang::Selector", ptr %6, i32 0, i32 0
  %12 = getelementptr inbounds nuw %"class.llvm::PointerIntPair.485", ptr %11, i32 0, i32 0
  %13 = getelementptr inbounds nuw %"struct.llvm::detail::PunnedPointer.486", ptr %12, i32 0, i32 0
  store i64 %10, ptr %13, align 8
  %14 = getelementptr inbounds nuw %"class.clang::Selector", ptr %6, i32 0, i32 0
  %15 = getelementptr inbounds nuw %"class.llvm::PointerIntPair.485", ptr %14, i32 0, i32 0
  %16 = getelementptr inbounds nuw %"struct.llvm::detail::PunnedPointer.486", ptr %15, i32 0, i32 0
  %17 = load i64, ptr %16, align 8
  call void @_ZN5clang15DeclarationNameC2ENS_8SelectorE(ptr noundef nonnull align 8 dereferenceable(8) %5, i64 %17)
  %18 = getelementptr inbounds nuw %"class.clang::DeclarationName", ptr %5, i32 0, i32 0
  %19 = load i64, ptr %18, align 8
  %20 = load ptr, ptr %7, align 8
  %21 = getelementptr inbounds ptr, ptr %20, i64 5
  %22 = load ptr, ptr %21, align 8
  call void %22(ptr noundef nonnull align 8 dereferenceable(18) %7, i64 %19, i1 noundef zeroext false)
  %23 = load ptr, ptr %4, align 8
  %24 = call noundef ptr @_ZNK5clang15ObjCMessageExpr13getMethodDeclEv(ptr noundef nonnull align 8 dereferenceable(40) %23)
  %25 = load ptr, ptr %7, align 8
  %26 = getelementptr inbounds ptr, ptr %25, i64 3
  %27 = load ptr, ptr %26, align 8
  call void %27(ptr noundef nonnull align 8 dereferenceable(18) %7, ptr noundef %24)
  ret void
}