; Function Attrs: mustprogress nounwind uwtable
define internal fastcc void @_ZN12_GLOBAL__N_112StmtProfiler20VisitObjCMessageExprEPKN5clang15ObjCMessageExprE(ptr noundef nonnull align 8 dereferenceable(18) %0, ptr noundef %1) unnamed_addr #0 align 2 {
  tail call fastcc void @_ZN12_GLOBAL__N_112StmtProfiler9VisitStmtEPKN5clang4StmtE(ptr noundef nonnull align 8 dereferenceable(18) %0, ptr noundef %1)
  %3 = tail call i64 @_ZNK5clang15ObjCMessageExpr11getSelectorEv(ptr noundef nonnull align 8 dereferenceable(40) %1) #11
  %4 = load ptr, ptr %0, align 8
  %5 = getelementptr inbounds nuw i8, ptr %4, i64 40
  %6 = load ptr, ptr %5, align 8
  tail call void %6(ptr noundef nonnull align 8 dereferenceable(18) %0, i64 %3, i1 noundef zeroext false) #11
  %7 = getelementptr inbounds nuw i8, ptr %1, i64 24
  %8 = load i32, ptr %7, align 8
  %9 = and i32 %8, 16777216
  %.not.i = icmp eq i32 %9, 0
  %10 = getelementptr inbounds nuw i8, ptr %1, i64 16
  %11 = load i64, ptr %10, align 8
  %12 = inttoptr i64 %11 to ptr
  %.0.i = select i1 %.not.i, ptr null, ptr %12
  %13 = load ptr, ptr %0, align 8
  %14 = getelementptr inbounds nuw i8, ptr %13, i64 24
  %15 = load ptr, ptr %14, align 8
  tail call void %15(ptr noundef nonnull align 8 dereferenceable(18) %0, ptr noundef %.0.i) #11
  ret void
}